; Function Attrs: nofree norecurse nosync nounwind memory(argmem: readwrite) uwtable
define internal void @rgb32ToUV_c(ptr noundef writeonly captures(none) %0, ptr noundef writeonly captures(none) %1, ptr readnone captures(none) %2, ptr noundef readonly captures(none) %3, ptr readnone captures(none) %4, i32 noundef %5, ptr noundef readonly captures(none) %6, ptr readnone captures(none) %7) #1 {
  %9 = getelementptr inbounds nuw i8, ptr %6, i64 12
  %10 = load i32, ptr %9, align 4, !tbaa !42
  %11 = getelementptr inbounds nuw i8, ptr %6, i64 16
  %12 = load i32, ptr %11, align 4, !tbaa !42
  %13 = getelementptr inbounds nuw i8, ptr %6, i64 20
  %14 = load i32, ptr %13, align 4, !tbaa !42
  %15 = getelementptr inbounds nuw i8, ptr %6, i64 24
  %16 = load i32, ptr %15, align 4, !tbaa !42
  %17 = getelementptr inbounds nuw i8, ptr %6, i64 28
  %18 = load i32, ptr %17, align 4, !tbaa !42
  %19 = getelementptr inbounds nuw i8, ptr %6, i64 32
  %20 = load i32, ptr %19, align 4, !tbaa !42
  %factor.op.mul = shl i32 %10, 8
  %factor.op.mul6 = shl i32 %14, 8
  %factor.op.mul8 = shl i32 %16, 8
  %factor.op.mul10 = shl i32 %20, 8
  %21 = icmp sgt i32 %5, 0
  br i1 %21, label %.lr.ph.preheader, label %rgb16_32ToUV_c_template.exit

.lr.ph.preheader:                                 ; preds = %8
  %wide.trip.count = zext nneg i32 %5 to i64
  br label %.lr.ph

.lr.ph:                                           ; preds = %.lr.ph.preheader, %.lr.ph
  %indvars.iv = phi i64 [ 0, %.lr.ph.preheader ], [ %indvars.iv.next, %.lr.ph ]
  %22 = shl nsw i64 %indvars.iv, 2
  %23 = getelementptr inbounds nuw i8, ptr %3, i64 %22
  %24 = load i32, ptr %23, align 4, !tbaa !34
  %25 = lshr i32 %24, 16
  %26 = and i32 %25, 255
  %27 = and i32 %24, 65280
  %28 = and i32 %24, 255
  %.reass = mul i32 %28, %factor.op.mul
  %29 = mul nsw i32 %27, %12
  %.reass7 = mul i32 %26, %factor.op.mul6
  %reass.add = add i32 %.reass7, %.reass
  %30 = add i32 %29, 1073807360
  %31 = add i32 %30, %reass.add
  %32 = lshr i32 %31, 17
  %33 = trunc nuw nsw i32 %32 to i16
  %34 = getelementptr inbounds nuw i16, ptr %0, i64 %indvars.iv
  store i16 %33, ptr %34, align 2, !tbaa !43
  %.reass9 = mul i32 %28, %factor.op.mul8
  %35 = mul nsw i32 %27, %18
  %.reass11 = mul i32 %26, %factor.op.mul10
  %reass.add4 = add i32 %.reass11, %.reass9
  %36 = add i32 %35, 1073807360
  %37 = add i32 %36, %reass.add4
  %38 = lshr i32 %37, 17
  %39 = trunc nuw nsw i32 %38 to i16
  %40 = getelementptr inbounds nuw i16, ptr %1, i64 %indvars.iv
  store i16 %39, ptr %40, align 2, !tbaa !43
  %indvars.iv.next = add nuw nsw i64 %indvars.iv, 1
  %exitcond.not = icmp eq i64 %indvars.iv.next, %wide.trip.count
  br i1 %exitcond.not, label %rgb16_32ToUV_c_template.exit, label %.lr.ph, !llvm.loop !86

rgb16_32ToUV_c_template.exit:                     ; preds = %.lr.ph, %8
  ret void
}